; ModuleID = 'source-C-CXX/61/2370.cpp'
source_filename = "source-C-CXX/61/2370.cpp"
target datalayout = "e-m:e-p270:32:32-p271:32:32-p272:64:64-i64:64-f80:128-n8:16:32:64-S128"
target triple = "x86_64-pc-linux-gnu"

%"class.std::ios_base::Init" = type { i8 }
%"class.std::basic_ostream" = type { i32 (...)**, %"class.std::basic_ios" }
%"class.std::basic_ios" = type { %"class.std::ios_base", %"class.std::basic_ostream"*, i8, i8, %"class.std::basic_streambuf"*, %"class.std::ctype"*, %"class.std::num_put"*, %"class.std::num_get"* }
%"class.std::ios_base" = type { i32 (...)**, i64, i64, i32, i32, i32, %"struct.std::ios_base::_Callback_list"*, %"struct.std::ios_base::_Words", [8 x %"struct.std::ios_base::_Words"], i32, %"struct.std::ios_base::_Words"*, %"class.std::locale" }
%"struct.std::ios_base::_Callback_list" = type { %"struct.std::ios_base::_Callback_list"*, void (i32, %"class.std::ios_base"*, i32)*, i32, i32 }
%"struct.std::ios_base::_Words" = type { i8*, i64 }
%"class.std::locale" = type { %"class.std::locale::_Impl"* }
%"class.std::locale::_Impl" = type { i32, %"class.std::locale::facet"**, i64, %"class.std::locale::facet"**, i8** }
%"class.std::locale::facet" = type <{ i32 (...)**, i32, [4 x i8] }>
%"class.std::basic_streambuf" = type { i32 (...)**, i8*, i8*, i8*, i8*, i8*, i8*, %"class.std::locale" }
%"class.std::ctype" = type <{ %"class.std::locale::facet.base", [4 x i8], %struct.__locale_struct*, i8, [7 x i8], i32*, i32*, i16*, i8, [256 x i8], [256 x i8], i8, [6 x i8] }>
%"class.std::locale::facet.base" = type <{ i32 (...)**, i32 }>
%struct.__locale_struct = type { [13 x %struct.__locale_data*], i16*, i32*, i32*, [13 x i8*] }
%struct.__locale_data = type opaque
%"class.std::num_put" = type { %"class.std::locale::facet.base", [4 x i8] }
%"class.std::num_get" = type { %"class.std::locale::facet.base", [4 x i8] }
%struct._IO_FILE = type { i32, i8*, i8*, i8*, i8*, i8*, i8*, i8*, i8*, i8*, i8*, i8*, %struct._IO_marker*, %struct._IO_FILE*, i32, i32, i64, i16, i8, [1 x i8], i8*, i64, %struct._IO_codecvt*, %struct._IO_wide_data*, %struct._IO_FILE*, i8*, i64, i32, [20 x i8] }
%struct._IO_marker = type opaque
%struct._IO_codecvt = type opaque
%struct._IO_wide_data = type opaque

@_ZStL8__ioinit = internal global %"class.std::ios_base::Init" zeroinitializer, align 1
@__dso_handle = external hidden global i8
@_ZSt4cout = external global %"class.std::basic_ostream", align 8
@.str = private unnamed_addr constant [2 x i8] c" \00", align 1
@stdin = external local_unnamed_addr global %struct._IO_FILE*, align 8
@llvm.global_ctors = appending global [1 x { i32, void ()*, i8* }] [{ i32, void ()*, i8* } { i32 65535, void ()* @_GLOBAL__sub_I_2370.cpp, i8* null }]

declare void @_ZNSt8ios_base4InitC1Ev(%"class.std::ios_base::Init"* nonnull align 1 dereferenceable(1)) unnamed_addr #0

; Function Attrs: nounwind
declare void @_ZNSt8ios_base4InitD1Ev(%"class.std::ios_base::Init"* nonnull align 1 dereferenceable(1)) unnamed_addr #1

; Function Attrs: nofree nounwind
declare i32 @__cxa_atexit(void (i8*)*, i8*, i8*) local_unnamed_addr #2

; Function Attrs: mustprogress norecurse sspstrong uwtable
define dso_local i32 @main() local_unnamed_addr #3 {
  %1 = alloca i8, align 1
  %2 = alloca i8, align 1
  %3 = alloca [10000 x [50 x i8]], align 16
  %4 = getelementptr inbounds [10000 x [50 x i8]], [10000 x [50 x i8]]* %3, i64 0, i64 0, i64 0
  call void @llvm.lifetime.start.p0i8(i64 500000, i8* nonnull %4) #8
  call void @llvm.memset.p0i8.i64(i8* noundef nonnull align 16 dereferenceable(500000) %4, i8 0, i64 500000, i1 false)
  br label %5

5:                                                ; preds = %23, %0
  %6 = phi i32 [ %24, %23 ], [ 0, %0 ]
  %7 = phi i32 [ 1, %23 ], [ 0, %0 ]
  %8 = zext i32 %6 to i64
  br label %9

9:                                                ; preds = %5, %25
  %10 = phi i32 [ %27, %25 ], [ 0, %5 ]
  %11 = phi i32 [ 0, %25 ], [ %7, %5 ]
  br label %12

12:                                               ; preds = %21, %9
  %13 = phi i32 [ %11, %9 ], [ 1, %21 ]
  %14 = load %struct._IO_FILE*, %struct._IO_FILE** @stdin, align 8, !tbaa !5
  %15 = tail call i32 @getc(%struct._IO_FILE* %14)
  %16 = shl i32 %15, 24
  switch i32 %16, label %25 [
    i32 167772160, label %17
    i32 536870912, label %21
  ]

17:                                               ; preds = %12
  %18 = icmp eq i32 %6, 0
  br i1 %18, label %35, label %19

19:                                               ; preds = %17
  %20 = zext i32 %6 to i64
  br label %30

21:                                               ; preds = %12
  %22 = icmp eq i32 %13, 0
  br i1 %22, label %23, label %12, !llvm.loop !9

23:                                               ; preds = %21
  %24 = add nuw nsw i32 %6, 1
  br label %5, !llvm.loop !9

25:                                               ; preds = %12
  %26 = trunc i32 %15 to i8
  %27 = add nuw nsw i32 %10, 1
  %28 = zext i32 %10 to i64
  %29 = getelementptr inbounds [10000 x [50 x i8]], [10000 x [50 x i8]]* %3, i64 0, i64 %8, i64 %28
  store i8 %26, i8* %29, align 1, !tbaa !11
  br label %9, !llvm.loop !9

30:                                               ; preds = %19, %48
  %31 = phi i64 [ 0, %19 ], [ %50, %48 ]
  %32 = getelementptr inbounds [10000 x [50 x i8]], [10000 x [50 x i8]]* %3, i64 0, i64 %31, i64 0
  %33 = load i8, i8* %32, align 2, !tbaa !11
  %34 = icmp eq i8 %33, 0
  br i1 %34, label %48, label %40

35:                                               ; preds = %48, %17
  %36 = zext i32 %6 to i64
  %37 = getelementptr inbounds [10000 x [50 x i8]], [10000 x [50 x i8]]* %3, i64 0, i64 %36, i64 0
  %38 = load i8, i8* %37, align 2, !tbaa !11
  %39 = icmp eq i8 %38, 0
  br i1 %39, label %60, label %52

40:                                               ; preds = %30, %40
  %41 = phi i64 [ %44, %40 ], [ 0, %30 ]
  %42 = phi i8 [ %46, %40 ], [ %33, %30 ]
  call void @llvm.lifetime.start.p0i8(i64 1, i8* nonnull %2)
  store i8 %42, i8* %2, align 1, !tbaa !11
  %43 = call nonnull align 8 dereferenceable(8) %"class.std::basic_ostream"* @_ZSt16__ostream_insertIcSt11char_traitsIcEERSt13basic_ostreamIT_T0_ES6_PKS3_l(%"class.std::basic_ostream"* nonnull align 8 dereferenceable(8) @_ZSt4cout, i8* nonnull %2, i64 1)
  call void @llvm.lifetime.end.p0i8(i64 1, i8* nonnull %2)
  %44 = add nuw i64 %41, 1
  %45 = getelementptr inbounds [10000 x [50 x i8]], [10000 x [50 x i8]]* %3, i64 0, i64 %31, i64 %44
  %46 = load i8, i8* %45, align 1, !tbaa !11
  %47 = icmp eq i8 %46, 0
  br i1 %47, label %48, label %40, !llvm.loop !12

48:                                               ; preds = %40, %30
  %49 = call nonnull align 8 dereferenceable(8) %"class.std::basic_ostream"* @_ZSt16__ostream_insertIcSt11char_traitsIcEERSt13basic_ostreamIT_T0_ES6_PKS3_l(%"class.std::basic_ostream"* nonnull align 8 dereferenceable(8) @_ZSt4cout, i8* nonnull getelementptr inbounds ([2 x i8], [2 x i8]* @.str, i64 0, i64 0), i64 1)
  %50 = add nuw nsw i64 %31, 1
  %51 = icmp eq i64 %50, %20
  br i1 %51, label %35, label %30, !llvm.loop !13

52:                                               ; preds = %35, %52
  %53 = phi i64 [ %56, %52 ], [ 0, %35 ]
  %54 = phi i8 [ %58, %52 ], [ %38, %35 ]
  call void @llvm.lifetime.start.p0i8(i64 1, i8* nonnull %1)
  store i8 %54, i8* %1, align 1, !tbaa !11
  %55 = call nonnull align 8 dereferenceable(8) %"class.std::basic_ostream"* @_ZSt16__ostream_insertIcSt11char_traitsIcEERSt13basic_ostreamIT_T0_ES6_PKS3_l(%"class.std::basic_ostream"* nonnull align 8 dereferenceable(8) @_ZSt4cout, i8* nonnull %1, i64 1)
  call void @llvm.lifetime.end.p0i8(i64 1, i8* nonnull %1)
  %56 = add nuw i64 %53, 1
  %57 = getelementptr inbounds [10000 x [50 x i8]], [10000 x [50 x i8]]* %3, i64 0, i64 %36, i64 %56
  %58 = load i8, i8* %57, align 1, !tbaa !11
  %59 = icmp eq i8 %58, 0
  br i1 %59, label %60, label %52, !llvm.loop !14

60:                                               ; preds = %52, %35
  call void @llvm.lifetime.end.p0i8(i64 500000, i8* nonnull %4) #8
  ret i32 0
}

; Function Attrs: argmemonly mustprogress nofree nosync nounwind willreturn
declare void @llvm.lifetime.start.p0i8(i64 immarg, i8* nocapture) #4

; Function Attrs: argmemonly mustprogress nofree nounwind willreturn writeonly
declare void @llvm.memset.p0i8.i64(i8* nocapture writeonly, i8, i64, i1 immarg) #5

; Function Attrs: argmemonly mustprogress nofree nosync nounwind willreturn
declare void @llvm.lifetime.end.p0i8(i64 immarg, i8* nocapture) #4

; Function Attrs: nofree nounwind
declare noundef i32 @getc(%struct._IO_FILE* nocapture noundef) local_unnamed_addr #6

declare nonnull align 8 dereferenceable(8) %"class.std::basic_ostream"* @_ZSt16__ostream_insertIcSt11char_traitsIcEERSt13basic_ostreamIT_T0_ES6_PKS3_l(%"class.std::basic_ostream"* nonnull align 8 dereferenceable(8), i8*, i64) local_unnamed_addr #0

; Function Attrs: sspstrong uwtable
define internal void @_GLOBAL__sub_I_2370.cpp() #7 section ".text.startup" {
  tail call void @_ZNSt8ios_base4InitC1Ev(%"class.std::ios_base::Init"* nonnull align 1 dereferenceable(1) @_ZStL8__ioinit)
  %1 = tail call i32 @__cxa_atexit(void (i8*)* bitcast (void (%"class.std::ios_base::Init"*)* @_ZNSt8ios_base4InitD1Ev to void (i8*)*), i8* getelementptr inbounds (%"class.std::ios_base::Init", %"class.std::ios_base::Init"* @_ZStL8__ioinit, i64 0, i32 0), i8* nonnull @__dso_handle) #8
  ret void
}


!llvm.module.flags = !{!0, !1, !2, !3}
!llvm.ident = !{!4}

!0 = !{i32 1, !"wchar_size", i32 4}
!1 = !{i32 7, !"PIC Level", i32 2}
!2 = !{i32 7, !"PIE Level", i32 2}
!3 = !{i32 7, !"uwtable", i32 1}
!4 = !{!"clang version 13.0.0"}
!5 = !{!6, !6, i64 0}
!6 = !{!"any pointer", !7, i64 0}
!7 = !{!"omnipotent char", !8, i64 0}
!8 = !{!"Simple C++ TBAA"}
!9 = distinct !{!9, !10}
!10 = !{!"llvm.loop.mustprogress"}
!11 = !{!7, !7, i64 0}
!12 = distinct !{!12, !10}
!13 = distinct !{!13, !10}
!14 = distinct !{!14, !10}
